; Function Attrs: nounwind uwtable
define hidden void @luaD_callnoyield(ptr noundef %0, ptr noundef %1, i32 noundef %2) local_unnamed_addr #0 {
  %4 = getelementptr inbounds nuw i8, ptr %0, i64 176
  %5 = load i32, ptr %4, align 8, !tbaa !38
  %6 = add i32 %5, 65537
  store i32 %6, ptr %4, align 8, !tbaa !38
  %7 = and i32 %6, 65528
  %8 = icmp samesign ugt i32 %7, 199
  br i1 %8, label %9, label %28, !prof !42

9:                                                ; preds = %3
  %10 = getelementptr inbounds nuw i8, ptr %0, i64 40
  %11 = load ptr, ptr %10, align 8, !tbaa !27
  %12 = getelementptr inbounds nuw i8, ptr %0, i64 16
  %13 = load ptr, ptr %12, align 8, !tbaa !27
  %14 = ptrtoint ptr %11 to i64
  %15 = ptrtoint ptr %13 to i64
  %16 = sub i64 %14, %15
  %17 = icmp slt i64 %16, 16
  br i1 %17, label %18, label %27, !prof !42

18:                                               ; preds = %9
  %19 = getelementptr inbounds nuw i8, ptr %0, i64 48
  %20 = load ptr, ptr %19, align 8, !tbaa !27
  %21 = ptrtoint ptr %1 to i64
  %22 = ptrtoint ptr %20 to i64
  %23 = sub i64 %21, %22
  %24 = tail call i32 @luaD_growstack(ptr noundef nonnull %0, i32 noundef 0, i32 noundef 1)
  %25 = load ptr, ptr %19, align 8, !tbaa !27
  %26 = getelementptr inbounds i8, ptr %25, i64 %23
  br label %27

27:                                               ; preds = %18, %9
  %.1.i = phi ptr [ %26, %18 ], [ %1, %9 ]
  tail call void @luaE_checkcstack(ptr noundef nonnull %0) #13
  br label %28

28:                                               ; preds = %27, %3
  %.0.i = phi ptr [ %.1.i, %27 ], [ %1, %3 ]
  %29 = tail call ptr @luaD_precall(ptr noundef nonnull %0, ptr noundef %.0.i, i32 noundef %2)
  %.not.i = icmp eq ptr %29, null
  br i1 %.not.i, label %ccall.exit, label %30

30:                                               ; preds = %28
  %31 = getelementptr inbounds nuw i8, ptr %29, i64 60
  %32 = load i32, ptr %31, align 4, !tbaa !43
  %33 = or i32 %32, 65536
  store i32 %33, ptr %31, align 4, !tbaa !43
  tail call void @luaV_execute(ptr noundef nonnull %0, ptr noundef nonnull %29) #13
  br label %ccall.exit

ccall.exit:                                       ; preds = %28, %30
  %34 = load i32, ptr %4, align 8, !tbaa !38
  %35 = add i32 %34, -65537
  store i32 %35, ptr %4, align 8, !tbaa !38
  ret void
}